; Function Attrs: mustprogress nofree norecurse nosync nounwind willreturn memory(argmem: readwrite) uwtable
define internal void @ff_tx_fft4_ns_double_c(ptr readnone captures(none) %0, ptr noundef writeonly captures(none) initializes((0, 64)) %1, ptr noundef readonly captures(none) %2, i64 %3) #8 {
  %5 = load double, ptr %2, align 8, !tbaa !50
  %6 = getelementptr inbounds nuw i8, ptr %2, i64 16
  %7 = load double, ptr %6, align 8, !tbaa !50
  %8 = fsub nsz double %5, %7
  %9 = fadd nsz double %5, %7
  %10 = getelementptr inbounds nuw i8, ptr %2, i64 48
  %11 = load double, ptr %10, align 8, !tbaa !50
  %12 = getelementptr inbounds nuw i8, ptr %2, i64 32
  %13 = load double, ptr %12, align 8, !tbaa !50
  %14 = fsub nsz double %11, %13
  %15 = fadd nsz double %11, %13
  %16 = fsub nsz double %9, %15
  %17 = getelementptr inbounds nuw i8, ptr %1, i64 32
  store double %16, ptr %17, align 8, !tbaa !50
  %18 = fadd nsz double %9, %15
  store double %18, ptr %1, align 8, !tbaa !50
  %19 = getelementptr inbounds nuw i8, ptr %2, i64 8
  %20 = load double, ptr %19, align 8, !tbaa !52
  %21 = getelementptr inbounds nuw i8, ptr %2, i64 24
  %22 = load double, ptr %21, align 8, !tbaa !52
  %23 = fsub nsz double %20, %22
  %24 = fadd nsz double %20, %22
  %25 = getelementptr inbounds nuw i8, ptr %2, i64 40
  %26 = load double, ptr %25, align 8, !tbaa !52
  %27 = getelementptr inbounds nuw i8, ptr %2, i64 56
  %28 = load double, ptr %27, align 8, !tbaa !52
  %29 = fsub nsz double %26, %28
  %30 = fadd nsz double %26, %28
  %31 = fsub nsz double %23, %14
  %32 = getelementptr inbounds nuw i8, ptr %1, i64 48
  %33 = getelementptr inbounds nuw i8, ptr %1, i64 56
  store double %31, ptr %33, align 8, !tbaa !52
  %34 = fadd nsz double %14, %23
  %35 = getelementptr inbounds nuw i8, ptr %1, i64 16
  %36 = getelementptr inbounds nuw i8, ptr %1, i64 24
  store double %34, ptr %36, align 8, !tbaa !52
  %37 = fsub nsz double %8, %29
  store double %37, ptr %32, align 8, !tbaa !50
  %38 = fadd nsz double %8, %29
  store double %38, ptr %35, align 8, !tbaa !50
  %39 = fsub nsz double %24, %30
  %40 = getelementptr inbounds nuw i8, ptr %1, i64 40
  store double %39, ptr %40, align 8, !tbaa !52
  %41 = fadd nsz double %24, %30
  %42 = getelementptr inbounds nuw i8, ptr %1, i64 8
  store double %41, ptr %42, align 8, !tbaa !52
  ret void
}